; Function Attrs: mustprogress uwtable
define void @_ZN9syscall_t11undo_chrootB5cxx11EPKc(ptr dead_on_unwind noalias writable sret(%"class.std::__cxx11::basic_string") align 8 %0, ptr nocapture noundef nonnull readonly align 8 dereferenceable(176) %1, ptr noundef %2) local_unnamed_addr #3 align 2 personality ptr @__gxx_personality_v0 {
  %4 = alloca %"class.std::allocator.20", align 1
  %5 = alloca %"class.std::allocator.20", align 1
  %6 = alloca %"class.std::allocator.20", align 1
  %7 = getelementptr inbounds i8, ptr %1, i64 152
  %8 = load i64, ptr %7, align 8
  %9 = icmp eq i64 %8, 0
  br i1 %9, label %10, label %13

10:                                               ; preds = %3
  call void @_ZNSaIcEC1Ev(ptr noundef nonnull align 1 dereferenceable(1) %4) #26
  invoke void @_ZNSt7__cxx1112basic_stringIcSt11char_traitsIcESaIcEEC2IS3_EEPKcRKS3_(ptr noundef nonnull align 8 dereferenceable(32) %0, ptr noundef %2, ptr noundef nonnull align 1 dereferenceable(1) %4)
          to label %35 unwind label %11

11:                                               ; preds = %10
  %12 = landingpad { ptr, i32 }
          cleanup
  br label %36

13:                                               ; preds = %3
  %14 = getelementptr inbounds i8, ptr %1, i64 144
  %15 = load ptr, ptr %14, align 8
  %16 = tail call i32 @strncmp(ptr noundef %2, ptr noundef %15, i64 noundef %8) #31
  %17 = icmp eq i32 %16, 0
  br i1 %17, label %18, label %32

18:                                               ; preds = %13
  %19 = getelementptr i8, ptr %15, i64 %8
  %20 = getelementptr i8, ptr %19, i64 -1
  %21 = load i8, ptr %20, align 1
  %22 = icmp eq i8 %21, 47
  br i1 %22, label %27, label %23

23:                                               ; preds = %18
  %24 = getelementptr inbounds i8, ptr %2, i64 %8
  %25 = load i8, ptr %24, align 1
  %26 = icmp eq i8 %25, 47
  br i1 %26, label %27, label %32

27:                                               ; preds = %23, %18
  %28 = getelementptr inbounds i8, ptr %2, i64 %8
  %.neg = sext i1 %22 to i64
  %29 = getelementptr inbounds i8, ptr %28, i64 %.neg
  call void @_ZNSaIcEC1Ev(ptr noundef nonnull align 1 dereferenceable(1) %5) #26
  invoke void @_ZNSt7__cxx1112basic_stringIcSt11char_traitsIcESaIcEEC2IS3_EEPKcRKS3_(ptr noundef nonnull align 8 dereferenceable(32) %0, ptr noundef nonnull %29, ptr noundef nonnull align 1 dereferenceable(1) %5)
          to label %35 unwind label %30

30:                                               ; preds = %27
  %31 = landingpad { ptr, i32 }
          cleanup
  br label %36

32:                                               ; preds = %23, %13
  call void @_ZNSaIcEC1Ev(ptr noundef nonnull align 1 dereferenceable(1) %6) #26
  invoke void @_ZNSt7__cxx1112basic_stringIcSt11char_traitsIcESaIcEEC2IS3_EEPKcRKS3_(ptr noundef nonnull align 8 dereferenceable(32) %0, ptr noundef nonnull @.str.2, ptr noundef nonnull align 1 dereferenceable(1) %6)
          to label %35 unwind label %33

33:                                               ; preds = %32
  %34 = landingpad { ptr, i32 }
          cleanup
  br label %36

35:                                               ; preds = %32, %27, %10
  %.sink = phi ptr [ %4, %10 ], [ %5, %27 ], [ %6, %32 ]
  call void @_ZNSaIcED1Ev(ptr noundef nonnull align 1 dereferenceable(1) %.sink) #26
  ret void

36:                                               ; preds = %33, %30, %11
  %.sink8 = phi ptr [ %6, %33 ], [ %5, %30 ], [ %4, %11 ]
  %.pn = phi { ptr, i32 } [ %34, %33 ], [ %31, %30 ], [ %12, %11 ]
  call void @_ZNSaIcED1Ev(ptr noundef nonnull align 1 dereferenceable(1) %.sink8) #26
  resume { ptr, i32 } %.pn
}